	.file	"delta_encoding.c"
	.text
	.globl	delta_encode
	.type	delta_encode, @function
delta_encode:
.LFB0:
	.cfi_startproc
	pushq	%rbp
	.cfi_def_cfa_offset 16
	.cfi_offset 6, -16
	movq	%rsp, %rbp
	.cfi_def_cfa_register 6
	movq	%rdi, -24(%rbp)
	movl	%esi, -28(%rbp)
	movl	$0, -12(%rbp)
	movl	$0, -8(%rbp)
	jmp	.L2
.L3:
	movl	-8(%rbp), %eax
	cltq
	leaq	(%rax,%rax), %rdx
	movq	-24(%rbp), %rax
	addq	%rdx, %rax
	movzwl	(%rax), %eax
	cwtl
	subl	-12(%rbp), %eax
	movl	%eax, -4(%rbp)
	movl	-8(%rbp), %eax
	cltq
	leaq	(%rax,%rax), %rdx
	movq	-24(%rbp), %rax
	addq	%rdx, %rax
	movzwl	(%rax), %eax
	cwtl
	movl	%eax, -12(%rbp)
	movl	-8(%rbp), %eax
	cltq
	leaq	(%rax,%rax), %rdx
	movq	-24(%rbp), %rax
	addq	%rdx, %rax
	movl	-4(%rbp), %edx
	movw	%dx, (%rax)
	addl	$1, -8(%rbp)
.L2:
	movl	-8(%rbp), %eax
	cmpl	-28(%rbp), %eax
	jl	.L3
	movl	$0, %eax
	popq	%rbp
	.cfi_def_cfa 7, 8
	ret
	.cfi_endproc
.LFE0:
	.size	delta_encode, .-delta_encode
	.globl	delta_decode
	.type	delta_decode, @function
delta_decode:
.LFB1:
	.cfi_startproc
	pushq	%rbp
	.cfi_def_cfa_offset 16
	.cfi_offset 6, -16
	movq	%rsp, %rbp
	.cfi_def_cfa_register 6
	movq	%rdi, -24(%rbp)
	movl	%esi, -28(%rbp)
	movl	$0, -8(%rbp)
	movl	$0, -4(%rbp)
	jmp	.L6
.L7:
	movl	-4(%rbp), %eax
	cltq
	leaq	(%rax,%rax), %rdx
	movq	-24(%rbp), %rax
	addq	%rdx, %rax
	movzwl	(%rax), %eax
	cwtl
	addl	%eax, -8(%rbp)
	movl	-4(%rbp), %eax
	cltq
	leaq	(%rax,%rax), %rdx
	movq	-24(%rbp), %rax
	addq	%rdx, %rax
	movl	-8(%rbp), %edx
	movw	%dx, (%rax)
	addl	$1, -4(%rbp)
.L6:
	movl	-4(%rbp), %eax
	cmpl	-28(%rbp), %eax
	jl	.L7
	movl	$0, %eax
	popq	%rbp
	.cfi_def_cfa 7, 8
	ret
	.cfi_endproc
.LFE1:
	.size	delta_decode, .-delta_decode
	.ident	"GCC: (GNU) 12.2.1 20230111"
	.section	.note.GNU-stack,"",@progbits
